target datalayout = "e-m:e-p270:32:32-p271:32:32-p272:64:64-i64:64-i128:128-f80:128-n8:16:32:64-S128"
target triple = "x86_64-pc-linux-gnu"

; Function Attrs: null_pointer_is_valid sspstrong uwtable
define internal void @dissect_mpls_echo_tlv_errored(ptr noundef %0, ptr noundef %1, i32 noundef %2, ptr noundef %3, i32 noundef %4) #0 {
  %6 = alloca ptr, align 8
  %7 = alloca ptr, align 8
  %8 = alloca i32, align 4
  %9 = alloca ptr, align 8
  %10 = alloca i32, align 4
  %11 = alloca i32, align 4
  store ptr %0, ptr %6, align 8
  store ptr %1, ptr %7, align 8
  store i32 %2, ptr %8, align 4
  store ptr %3, ptr %9, align 8
  store i32 %4, ptr %10, align 4
  call void @llvm.lifetime.start.p0(i64 4, ptr %11) #4
  %12 = load ptr, ptr %7, align 8
  call void @increment_dissection_depth(ptr noundef %12)
  br label %13

13:                                               ; preds = %16, %5
  %14 = load i32, ptr %10, align 4
  %15 = icmp sge i32 %14, 4
  br i1 %15, label %16, label %29

16:                                               ; preds = %13
  %17 = load ptr, ptr %6, align 8
  %18 = load ptr, ptr %7, align 8
  %19 = load i32, ptr %8, align 4
  %20 = load ptr, ptr %9, align 8
  %21 = load i32, ptr %10, align 4
  %22 = call i32 @dissect_mpls_echo_tlv(ptr noundef %17, ptr noundef %18, i32 noundef %19, ptr noundef %20, i32 noundef %21, i1 noundef zeroext true)
  store i32 %22, ptr %11, align 4
  %23 = load i32, ptr %11, align 4
  %24 = load i32, ptr %10, align 4
  %25 = sub i32 %24, %23
  store i32 %25, ptr %10, align 4
  %26 = load i32, ptr %11, align 4
  %27 = load i32, ptr %8, align 4
  %28 = add i32 %27, %26
  store i32 %28, ptr %8, align 4
  br label %13, !llvm.loop !16

29:                                               ; preds = %13
  %30 = load ptr, ptr %7, align 8
  call void @increment_dissection_depth(ptr noundef %30)
  call void @llvm.lifetime.end.p0(i64 4, ptr %11) #4
  ret void
}