; Function Attrs: null_pointer_is_valid sspstrong uwtable
define internal fastcc void @dissect_mpls_echo_tlv_errored(ptr noundef %0, ptr noundef %1, i32 noundef %2, ptr noundef %3, i32 noundef range(i32 1, 2147483644) %4) unnamed_addr #0 {
  tail call void @increment_dissection_depth(ptr noundef %1)
  %6 = icmp samesign ugt i32 %4, 3
  br i1 %6, label %.lr.ph, label %._crit_edge

.lr.ph:                                           ; preds = %5, %.lr.ph
  %.013 = phi i32 [ %9, %.lr.ph ], [ %2, %5 ]
  %.01112 = phi i32 [ %8, %.lr.ph ], [ %4, %5 ]
  %7 = tail call fastcc i32 @dissect_mpls_echo_tlv(ptr noundef %0, ptr noundef %1, i32 noundef %.013, ptr noundef %3, i32 noundef %.01112, i1 noundef zeroext true)
  %8 = sub i32 %.01112, %7
  %9 = add i32 %7, %.013
  %10 = icmp sgt i32 %8, 3
  br i1 %10, label %.lr.ph, label %._crit_edge, !llvm.loop !12

._crit_edge:                                      ; preds = %.lr.ph, %5
  tail call void @increment_dissection_depth(ptr noundef %1)
  ret void
}